target datalayout = "e-m:e-p270:32:32-p271:32:32-p272:64:64-i64:64-i128:128-f80:128-n8:16:32:64-S128"
target triple = "x86_64-pc-linux-gnu"

%struct.linenoiseHistorySearchResult = type { i32, ptr, i32, i32 }

@history_len = internal global i32 0, align 4
@history = internal global ptr null, align 8
@cycle_to_next_search = internal global i32 0, align 4
@search_result_history_index = internal global i32 0, align 4
@reverse_search_direction = internal global i32 0, align 4

; Function Attrs: nounwind uwtable
define internal i32 @setNextSearchIndex(ptr noundef %0) #0 {
  %2 = alloca i32, align 4
  %3 = alloca ptr, align 8
  store ptr %0, ptr %3, align 8, !tbaa !55
  %4 = load i32, ptr @reverse_search_direction, align 4, !tbaa !4
  %5 = icmp eq i32 %4, 1
  br i1 %5, label %6, label %18

6:                                                ; preds = %1
  %7 = load ptr, ptr %3, align 8, !tbaa !55
  %8 = load i32, ptr %7, align 4, !tbaa !4
  %9 = load i32, ptr @history_len, align 4, !tbaa !4
  %10 = sub nsw i32 %9, 1
  %11 = icmp eq i32 %8, %10
  br i1 %11, label %12, label %13

12:                                               ; preds = %6
  store i32 0, ptr %2, align 4
  br label %29

13:                                               ; preds = %6
  %14 = load ptr, ptr %3, align 8, !tbaa !55
  %15 = load i32, ptr %14, align 4, !tbaa !4
  %16 = add nsw i32 %15, 1
  %17 = load ptr, ptr %3, align 8, !tbaa !55
  store i32 %16, ptr %17, align 4, !tbaa !4
  br label %28

18:                                               ; preds = %1
  %19 = load ptr, ptr %3, align 8, !tbaa !55
  %20 = load i32, ptr %19, align 4, !tbaa !4
  %21 = icmp sle i32 %20, 0
  br i1 %21, label %22, label %23

22:                                               ; preds = %18
  store i32 0, ptr %2, align 4
  br label %29

23:                                               ; preds = %18
  %24 = load ptr, ptr %3, align 8, !tbaa !55
  %25 = load i32, ptr %24, align 4, !tbaa !4
  %26 = sub nsw i32 %25, 1
  %27 = load ptr, ptr %3, align 8, !tbaa !55
  store i32 %26, ptr %27, align 4, !tbaa !4
  br label %28

28:                                               ; preds = %23, %13
  store i32 1, ptr %2, align 4
  br label %29

29:                                               ; preds = %28, %22, %12
  %30 = load i32, ptr %2, align 4
  ret i32 %30
}

; Function Attrs: nounwind uwtable
define dso_local void @searchInHistory(ptr dead_on_unwind noalias writable sret(%struct.linenoiseHistorySearchResult) align 8 %0, ptr noundef %1) #0 {
  %3 = alloca ptr, align 8
  %4 = alloca i32, align 4
  %5 = alloca ptr, align 8
  %6 = alloca i32, align 4
  %7 = alloca i32, align 4
  %8 = alloca i32, align 4
  store ptr %1, ptr %3, align 8, !tbaa !12
  call void @llvm.memset.p0.i64(ptr align 8 %0, i8 0, i64 24, i1 false)
  %9 = load i32, ptr @history_len, align 4, !tbaa !4
  %10 = icmp ne i32 %9, 0
  br i1 %10, label %11, label %15

11:                                               ; preds = %2
  %12 = load ptr, ptr %3, align 8, !tbaa !12
  %13 = call i64 @strlen(ptr noundef %12) #13
  %14 = icmp ne i64 %13, 0
  br i1 %14, label %16, label %15

15:                                               ; preds = %11, %2
  br label %105

16:                                               ; preds = %11
  call void @llvm.lifetime.start.p0(i64 4, ptr %4) #12
  %17 = load i32, ptr @cycle_to_next_search, align 4, !tbaa !4
  %18 = icmp ne i32 %17, 0
  br i1 %18, label %19, label %21

19:                                               ; preds = %16
  %20 = load i32, ptr @search_result_history_index, align 4, !tbaa !4
  br label %30

21:                                               ; preds = %16
  %22 = load i32, ptr @reverse_search_direction, align 4, !tbaa !4
  %23 = icmp eq i32 %22, -1
  br i1 %23, label %24, label %27

24:                                               ; preds = %21
  %25 = load i32, ptr @history_len, align 4, !tbaa !4
  %26 = sub nsw i32 %25, 1
  br label %28

27:                                               ; preds = %21
  br label %28

28:                                               ; preds = %27, %24
  %29 = phi i32 [ %26, %24 ], [ 0, %27 ]
  br label %30

30:                                               ; preds = %28, %19
  %31 = phi i32 [ %20, %19 ], [ %29, %28 ]
  store i32 %31, ptr %4, align 4, !tbaa !4
  br label %32

32:                                               ; preds = %103, %30
  br label %33

33:                                               ; preds = %32
  call void @llvm.lifetime.start.p0(i64 8, ptr %5) #12
  %34 = load ptr, ptr @history, align 8, !tbaa !20
  %35 = load i32, ptr %4, align 4, !tbaa !4
  %36 = sext i32 %35 to i64
  %37 = getelementptr inbounds ptr, ptr %34, i64 %36
  %38 = load ptr, ptr %37, align 8, !tbaa !12
  %39 = load ptr, ptr %3, align 8, !tbaa !12
  %40 = call ptr @strstr(ptr noundef %38, ptr noundef %39) #13
  store ptr %40, ptr %5, align 8, !tbaa !12
  call void @llvm.lifetime.start.p0(i64 4, ptr %6) #12
  %41 = load i32, ptr @cycle_to_next_search, align 4, !tbaa !4
  %42 = icmp ne i32 %41, 0
  br i1 %42, label %43, label %56

43:                                               ; preds = %33
  %44 = load ptr, ptr @history, align 8, !tbaa !20
  %45 = load i32, ptr %4, align 4, !tbaa !4
  %46 = sext i32 %45 to i64
  %47 = getelementptr inbounds ptr, ptr %44, i64 %46
  %48 = load ptr, ptr %47, align 8, !tbaa !12
  %49 = load ptr, ptr @history, align 8, !tbaa !20
  %50 = load i32, ptr @search_result_history_index, align 4, !tbaa !4
  %51 = sext i32 %50 to i64
  %52 = getelementptr inbounds ptr, ptr %49, i64 %51
  %53 = load ptr, ptr %52, align 8, !tbaa !12
  %54 = call i32 @strcmp(ptr noundef %48, ptr noundef %53) #13
  %55 = icmp eq i32 %54, 0
  br label %56

56:                                               ; preds = %43, %33
  %57 = phi i1 [ false, %33 ], [ %55, %43 ]
  %58 = zext i1 %57 to i32
  store i32 %58, ptr %6, align 4, !tbaa !4
  %59 = load ptr, ptr %5, align 8, !tbaa !12
  %60 = icmp ne ptr %59, null
  br i1 %60, label %61, label %96

61:                                               ; preds = %56
  %62 = load i32, ptr %6, align 4, !tbaa !4
  %63 = icmp ne i32 %62, 0
  br i1 %63, label %96, label %64

64:                                               ; preds = %61
  call void @llvm.lifetime.start.p0(i64 4, ptr %7) #12
  %65 = load ptr, ptr %5, align 8, !tbaa !12
  %66 = load ptr, ptr @history, align 8, !tbaa !20
  %67 = load i32, ptr %4, align 4, !tbaa !4
  %68 = sext i32 %67 to i64
  %69 = getelementptr inbounds ptr, ptr %66, i64 %68
  %70 = load ptr, ptr %69, align 8, !tbaa !12
  %71 = ptrtoint ptr %65 to i64
  %72 = ptrtoint ptr %70 to i64
  %73 = sub i64 %71, %72
  %74 = trunc i64 %73 to i32
  store i32 %74, ptr %7, align 4, !tbaa !4
  %75 = load ptr, ptr @history, align 8, !tbaa !20
  %76 = load i32, ptr %4, align 4, !tbaa !4
  %77 = sext i32 %76 to i64
  %78 = getelementptr inbounds ptr, ptr %75, i64 %77
  %79 = load ptr, ptr %78, align 8, !tbaa !12
  %80 = getelementptr inbounds nuw %struct.linenoiseHistorySearchResult, ptr %0, i32 0, i32 1
  store ptr %79, ptr %80, align 8, !tbaa !60
  %81 = load ptr, ptr @history, align 8, !tbaa !20
  %82 = load i32, ptr %4, align 4, !tbaa !4
  %83 = sext i32 %82 to i64
  %84 = getelementptr inbounds ptr, ptr %81, i64 %83
  %85 = load ptr, ptr %84, align 8, !tbaa !12
  %86 = call i64 @strlen(ptr noundef %85) #13
  %87 = trunc i64 %86 to i32
  %88 = getelementptr inbounds nuw %struct.linenoiseHistorySearchResult, ptr %0, i32 0, i32 0
  store i32 %87, ptr %88, align 8, !tbaa !62
  %89 = load i32, ptr %7, align 4, !tbaa !4
  %90 = getelementptr inbounds nuw %struct.linenoiseHistorySearchResult, ptr %0, i32 0, i32 2
  store i32 %89, ptr %90, align 8, !tbaa !63
  %91 = load ptr, ptr %3, align 8, !tbaa !12
  %92 = call i64 @strlen(ptr noundef %91) #13
  %93 = trunc i64 %92 to i32
  %94 = getelementptr inbounds nuw %struct.linenoiseHistorySearchResult, ptr %0, i32 0, i32 3
  store i32 %93, ptr %94, align 4, !tbaa !64
  %95 = load i32, ptr %4, align 4, !tbaa !4
  store i32 %95, ptr @search_result_history_index, align 4, !tbaa !4
  store i32 3, ptr %8, align 4
  call void @llvm.lifetime.end.p0(i64 4, ptr %7) #12
  br label %101

96:                                               ; preds = %61, %56
  %97 = call i32 @setNextSearchIndex(ptr noundef %4)
  %98 = icmp ne i32 %97, 0
  br i1 %98, label %100, label %99

99:                                               ; preds = %96
  store i32 3, ptr %8, align 4
  br label %101

100:                                              ; preds = %96
  store i32 0, ptr %8, align 4
  br label %101

101:                                              ; preds = %100, %99, %64
  call void @llvm.lifetime.end.p0(i64 4, ptr %6) #12
  call void @llvm.lifetime.end.p0(i64 8, ptr %5) #12
  %102 = load i32, ptr %8, align 4
  switch i32 %102, label %106 [
    i32 0, label %103
    i32 3, label %104
  ]

103:                                              ; preds = %101
  br label %32

104:                                              ; preds = %101
  store i32 1, ptr %8, align 4
  call void @llvm.lifetime.end.p0(i64 4, ptr %4) #12
  br label %105

105:                                              ; preds = %104, %15
  ret void

106:                                              ; preds = %101
  unreachable
}