; Function Attrs: nofree nounwind memory(readwrite, inaccessiblemem: none) uwtable
define dso_local void @searchInHistory(ptr dead_on_unwind noalias writable writeonly sret(%struct.linenoiseHistorySearchResult) align 8 captures(none) initializes((0, 24)) %0, ptr noundef readonly captures(none) %1) local_unnamed_addr #19 {
  tail call void @llvm.memset.p0.i64(ptr noundef nonnull align 8 dereferenceable(24) %0, i8 0, i64 24, i1 false)
  %3 = load i32, ptr @history_len, align 4, !tbaa !4
  %.not = icmp eq i32 %3, 0
  br i1 %.not, label %.loopexit, label %4

4:                                                ; preds = %2
  %char0 = load i8, ptr %1, align 1
  %.not10 = icmp eq i8 %char0, 0
  br i1 %.not10, label %.loopexit, label %5

5:                                                ; preds = %4
  %.b9 = load i1, ptr @cycle_to_next_search, align 4
  %.pre77 = add nsw i32 %3, -1
  br i1 %.b9, label %.split.us, label %.split

.split.us:                                        ; preds = %5
  %6 = load i32, ptr @search_result_history_index, align 4, !tbaa !4
  %7 = load ptr, ptr @history, align 8, !tbaa !40
  %8 = sext i32 %6 to i64
  %9 = getelementptr inbounds ptr, ptr %7, i64 %8
  %10 = load ptr, ptr %9, align 8, !tbaa !15
  %11 = sext i32 %6 to i64
  %12 = getelementptr inbounds ptr, ptr %7, i64 %11
  %13 = load ptr, ptr %12, align 8, !tbaa !15
  %14 = tail call ptr @strstr(ptr noundef nonnull dereferenceable(1) %13, ptr noundef nonnull dereferenceable(1) %1) #25
  %15 = tail call i32 @strcmp(ptr noundef nonnull dereferenceable(1) %13, ptr noundef nonnull dereferenceable(1) %10) #25
  %16 = icmp eq i32 %15, 0
  %17 = icmp eq ptr %14, null
  %or.cond.us40 = select i1 %17, i1 true, i1 %16
  br i1 %or.cond.us40, label %.lr.ph42, label %.split30.us

.lr.ph42:                                         ; preds = %.split.us
  %.pre = load i32, ptr @reverse_search_direction, align 4
  %18 = icmp eq i32 %.pre, 1
  br i1 %18, label %.lr.ph42.split.us.preheader, label %.lr.ph42.split

.lr.ph42.split.us.preheader:                      ; preds = %.lr.ph42
  %sext75 = sext i32 %.pre77 to i64
  br label %.lr.ph42.split.us

.lr.ph42.split.us:                                ; preds = %.lr.ph42.split.us.preheader, %20
  %indvars.iv73 = phi i64 [ %11, %.lr.ph42.split.us.preheader ], [ %indvars.iv.next74, %20 ]
  %19 = icmp eq i64 %indvars.iv73, %sext75
  br i1 %19, label %.loopexit, label %20

20:                                               ; preds = %.lr.ph42.split.us
  %indvars.iv.next74 = add nsw i64 %indvars.iv73, 1
  %21 = getelementptr inbounds ptr, ptr %7, i64 %indvars.iv.next74
  %22 = load ptr, ptr %21, align 8, !tbaa !15
  %23 = tail call ptr @strstr(ptr noundef nonnull dereferenceable(1) %22, ptr noundef nonnull dereferenceable(1) %1) #25
  %24 = tail call i32 @strcmp(ptr noundef nonnull dereferenceable(1) %22, ptr noundef nonnull dereferenceable(1) %10) #25
  %25 = icmp eq i32 %24, 0
  %26 = icmp eq ptr %23, null
  %or.cond.us.us = select i1 %26, i1 true, i1 %25
  br i1 %or.cond.us.us, label %.lr.ph42.split.us, label %.split30.us.loopexit

.lr.ph42.split:                                   ; preds = %.lr.ph42, %28
  %indvars.iv70 = phi i64 [ %indvars.iv.next71, %28 ], [ %11, %.lr.ph42 ]
  %27 = icmp slt i64 %indvars.iv70, 1
  br i1 %27, label %.loopexit, label %28

28:                                               ; preds = %.lr.ph42.split
  %indvars.iv.next71 = add nsw i64 %indvars.iv70, -1
  %29 = getelementptr inbounds ptr, ptr %7, i64 %indvars.iv.next71
  %30 = load ptr, ptr %29, align 8, !tbaa !15
  %31 = tail call ptr @strstr(ptr noundef nonnull dereferenceable(1) %30, ptr noundef nonnull dereferenceable(1) %1) #25
  %32 = tail call i32 @strcmp(ptr noundef nonnull dereferenceable(1) %30, ptr noundef nonnull dereferenceable(1) %10) #25
  %33 = icmp eq i32 %32, 0
  %34 = icmp eq ptr %31, null
  %or.cond.us = select i1 %34, i1 true, i1 %33
  br i1 %or.cond.us, label %.lr.ph42.split, label %.split30.us.loopexit50

.split:                                           ; preds = %5
  %35 = load i32, ptr @reverse_search_direction, align 4, !tbaa !4
  %36 = icmp eq i32 %35, -1
  %37 = select i1 %36, i32 %.pre77, i32 0
  %38 = load ptr, ptr @history, align 8, !tbaa !40
  %39 = sext i32 %37 to i64
  %40 = getelementptr inbounds ptr, ptr %38, i64 %39
  %41 = load ptr, ptr %40, align 8, !tbaa !15
  %42 = tail call ptr @strstr(ptr noundef nonnull dereferenceable(1) %41, ptr noundef nonnull dereferenceable(1) %1) #25
  %43 = icmp eq ptr %42, null
  br i1 %43, label %.lr.ph, label %.split30.us

.lr.ph:                                           ; preds = %.split
  %44 = icmp eq i32 %35, 1
  br i1 %44, label %.lr.ph.split.us.preheader, label %.lr.ph.split

.lr.ph.split.us.preheader:                        ; preds = %.lr.ph
  %sext = sext i32 %.pre77 to i64
  br label %.lr.ph.split.us

.lr.ph.split.us:                                  ; preds = %.lr.ph.split.us.preheader, %46
  %indvars.iv67 = phi i64 [ %39, %.lr.ph.split.us.preheader ], [ %indvars.iv.next68, %46 ]
  %45 = icmp eq i64 %indvars.iv67, %sext
  br i1 %45, label %.loopexit, label %46

46:                                               ; preds = %.lr.ph.split.us
  %indvars.iv.next68 = add nsw i64 %indvars.iv67, 1
  %47 = getelementptr inbounds ptr, ptr %38, i64 %indvars.iv.next68
  %48 = load ptr, ptr %47, align 8, !tbaa !15
  %49 = tail call ptr @strstr(ptr noundef nonnull dereferenceable(1) %48, ptr noundef nonnull dereferenceable(1) %1) #25
  %50 = icmp eq ptr %49, null
  br i1 %50, label %.lr.ph.split.us, label %.split30.us.loopexit52

.split30.us.loopexit:                             ; preds = %20
  %51 = trunc nsw i64 %indvars.iv.next74 to i32
  br label %.split30.us

.split30.us.loopexit50:                           ; preds = %28
  %52 = trunc nsw i64 %indvars.iv.next71 to i32
  br label %.split30.us

.split30.us.loopexit52:                           ; preds = %46
  %53 = trunc nsw i64 %indvars.iv.next68 to i32
  br label %.split30.us

.split30.us.loopexit54:                           ; preds = %67
  %54 = trunc nsw i64 %indvars.iv.next to i32
  br label %.split30.us

.split30.us:                                      ; preds = %.split30.us.loopexit54, %.split30.us.loopexit52, %.split30.us.loopexit50, %.split30.us.loopexit, %.split, %.split.us
  %.us-phi = phi i32 [ %6, %.split.us ], [ %37, %.split ], [ %51, %.split30.us.loopexit ], [ %52, %.split30.us.loopexit50 ], [ %53, %.split30.us.loopexit52 ], [ %54, %.split30.us.loopexit54 ]
  %.us-phi31 = phi ptr [ %13, %.split.us ], [ %41, %.split ], [ %22, %.split30.us.loopexit ], [ %30, %.split30.us.loopexit50 ], [ %48, %.split30.us.loopexit52 ], [ %69, %.split30.us.loopexit54 ]
  %.us-phi32 = phi ptr [ %14, %.split.us ], [ %42, %.split ], [ %23, %.split30.us.loopexit ], [ %31, %.split30.us.loopexit50 ], [ %49, %.split30.us.loopexit52 ], [ %70, %.split30.us.loopexit54 ]
  %55 = ptrtoint ptr %.us-phi32 to i64
  %56 = ptrtoint ptr %.us-phi31 to i64
  %57 = sub i64 %55, %56
  %58 = trunc i64 %57 to i32
  %59 = getelementptr inbounds nuw i8, ptr %0, i64 8
  store ptr %.us-phi31, ptr %59, align 8, !tbaa !35
  %60 = tail call i64 @strlen(ptr noundef nonnull dereferenceable(1) %.us-phi31) #25
  %61 = trunc i64 %60 to i32
  store i32 %61, ptr %0, align 8, !tbaa !69
  %62 = getelementptr inbounds nuw i8, ptr %0, i64 16
  store i32 %58, ptr %62, align 8, !tbaa !37
  %63 = tail call i64 @strlen(ptr noundef nonnull dereferenceable(1) %1) #25
  %64 = trunc i64 %63 to i32
  %65 = getelementptr inbounds nuw i8, ptr %0, i64 20
  store i32 %64, ptr %65, align 4, !tbaa !38
  store i32 %.us-phi, ptr @search_result_history_index, align 4, !tbaa !4
  br label %.loopexit

.lr.ph.split:                                     ; preds = %.lr.ph, %67
  %indvars.iv = phi i64 [ %indvars.iv.next, %67 ], [ %39, %.lr.ph ]
  %66 = icmp slt i64 %indvars.iv, 1
  br i1 %66, label %.loopexit, label %67

67:                                               ; preds = %.lr.ph.split
  %indvars.iv.next = add nsw i64 %indvars.iv, -1
  %68 = getelementptr inbounds ptr, ptr %38, i64 %indvars.iv.next
  %69 = load ptr, ptr %68, align 8, !tbaa !15
  %70 = tail call ptr @strstr(ptr noundef nonnull dereferenceable(1) %69, ptr noundef nonnull dereferenceable(1) %1) #25
  %71 = icmp eq ptr %70, null
  br i1 %71, label %.lr.ph.split, label %.split30.us.loopexit54

.loopexit:                                        ; preds = %.lr.ph.split, %.lr.ph.split.us, %.lr.ph42.split, %.lr.ph42.split.us, %.split30.us, %2, %4
  ret void
}